Certificate:
    Data:
        Version: 3 (0x2)
        Serial Number: 21 (0x15)
        Signature Algorithm: sha256WithRSAEncryption
        Issuer: C=US, O=Google, OU=Enterprise, CN=Enterprise Subordinate CA
        Validity
            Not Before: Jul 13 11:34:54 2022 GMT
            Not After : Oct 20 11:34:54 2024 GMT
        Subject: C=US, O=Google, OU=Enterprise, CN=grpc.domain.com
        Subject Public Key Info:
            Public Key Algorithm: rsaEncryption
                RSA Public-Key: (2048 bit)
                Modulus:
                    00:c3:a6:be:59:bc:09:be:3e:c3:f7:6c:17:b5:9c:
                    f5:d6:eb:e6:53:bf:f9:9b:3c:d2:00:c7:4c:33:25:
                    4d:42:12:db:c5:28:71:53:88:ce:e8:99:f2:60:48:
                    ae:71:d9:ef:af:01:87:44:4c:7b:51:09:45:46:3d:
                    9c:d5:cc:6d:38:46:a4:98:96:91:41:bb:ba:4c:7a:
                    f8:c8:c6:f3:35:32:14:41:f4:0b:24:8b:5a:9c:8d:
                    f0:0d:39:3c:3c:59:aa:e2:36:91:1d:85:f8:96:38:
                    b0:79:18:63:24:2b:82:c3:4a:13:ad:91:2c:0c:58:
                    38:82:f2:5d:c9:84:04:92:54:07:9e:2d:fb:68:21:
                    2b:01:ba:4a:dd:20:39:fe:f0:5e:11:61:c5:89:81:
                    aa:3a:61:2f:7d:71:d8:90:02:d2:dd:c0:b4:f1:9f:
                    3a:b1:94:9f:cd:c3:21:ce:7e:ba:a9:72:37:da:1f:
                    ce:87:a2:b9:88:55:6e:96:cf:59:55:05:d5:88:e3:
                    a0:58:f1:f2:18:70:af:00:6f:2d:12:ad:ee:b6:55:
                    30:ee:95:d8:18:eb:0d:3b:0b:b5:15:2a:fd:b7:1c:
                    be:98:46:79:be:77:bc:d3:43:b4:ec:2e:4c:e7:5d:
                    34:d7:8c:83:44:0c:9b:be:57:20:ea:ae:5f:80:23:
                    29:e7
                Exponent: 65537 (0x10001)
        X509v3 extensions:
            X509v3 Key Usage: critical
                Digital Signature
            X509v3 Basic Constraints: 
                CA:FALSE
            X509v3 Extended Key Usage: 
                TLS Web Server Authentication
            X509v3 Subject Key Identifier: 
                D9:27:18:73:C6:46:C6:24:85:62:38:BB:E0:5F:55:24:11:3B:FD:7D
            X509v3 Authority Key Identifier: 
                keyid:B7:BA:B0:02:A1:E7:BE:34:C6:C1:05:5C:66:78:E5:BB:53:5D:A1:54

            Authority Information Access: 
                CA Issuers - URI:http://pki.esodemoapp2.com/ca/tls-ca.cer

            X509v3 CRL Distribution Points: 

                Full Name:
                  URI:http://pki.esodemoapp2.com/ca/tls-ca.crl

            X509v3 Subject Alternative Name: 
                DNS:grpc.domain.com
    Signature Algorithm: sha256WithRSAEncryption
         5e:1a:17:40:0d:78:5e:d7:c5:09:5f:25:44:ae:ef:6c:30:74:
         ae:60:9c:f3:3d:c1:4a:bb:2b:8e:45:01:00:59:5b:b5:91:da:
         5a:90:df:09:40:7b:d9:34:d3:86:23:eb:a3:41:0a:50:57:fb:
         32:66:a0:40:f2:0f:c2:13:82:24:0e:2a:69:01:c0:71:fc:90:
         61:7e:fe:86:1a:d9:42:e5:a5:f6:ef:c5:7a:7e:c0:08:4b:4a:
         79:c0:ee:1f:74:95:02:ef:47:1e:04:8c:15:8b:cf:6d:3b:34:
         e5:72:d0:fe:d5:fb:9e:87:18:d8:89:f7:93:3f:0e:ad:46:ae:
         bb:c8:2a:3b:81:a2:ca:54:2d:e2:11:e4:99:7d:29:6f:d8:f3:
         66:24:c5:50:84:23:45:fd:24:8d:54:97:9b:14:5b:82:75:11:
         c0:96:2d:c0:7c:27:47:9b:58:d5:5d:71:3f:77:30:25:0a:0b:
         cd:1d:2d:34:39:af:00:af:2f:6b:87:54:76:22:39:1e:27:76:
         96:b8:68:a2:81:60:db:59:d4:7d:10:71:ea:fe:bd:70:d9:2c:
         cd:7c:53:25:e7:14:fa:7b:6e:35:3f:e8:a2:35:aa:cd:38:5d:
         7c:6f:db:1a:d2:fb:34:69:15:a9:b4:9d:01:c0:7b:eb:bd:b0:
         a0:31:a6:ed
-----BEGIN CERTIFICATE-----
MIIEMjCCAxqgAwIBAgIBFTANBgkqhkiG9w0BAQsFADBXMQswCQYDVQQGEwJVUzEP
MA0GA1UECgwGR29vZ2xlMRMwEQYDVQQLDApFbnRlcnByaXNlMSIwIAYDVQQDDBlF
bnRlcnByaXNlIFN1Ym9yZGluYXRlIENBMB4XDTIyMDcxMzExMzQ1NFoXDTI0MTAy
MDExMzQ1NFowTTELMAkGA1UEBhMCVVMxDzANBgNVBAoMBkdvb2dsZTETMBEGA1UE
CwwKRW50ZXJwcmlzZTEYMBYGA1UEAwwPZ3JwYy5kb21haW4uY29tMIIBIjANBgkq
hkiG9w0BAQEFAAOCAQ8AMIIBCgKCAQEAw6a+WbwJvj7D92wXtZz11uvmU7/5mzzS
AMdMMyVNQhLbxShxU4jO6JnyYEiucdnvrwGHREx7UQlFRj2c1cxtOEakmJaRQbu6
THr4yMbzNTIUQfQLJItanI3wDTk8PFmq4jaRHYX4ljiweRhjJCuCw0oTrZEsDFg4
gvJdyYQEklQHni37aCErAbpK3SA5/vBeEWHFiYGqOmEvfXHYkALS3cC08Z86sZSf
zcMhzn66qXI32h/Oh6K5iFVuls9ZVQXViOOgWPHyGHCvAG8tEq3utlUw7pXYGOsN
Owu1FSr9txy+mEZ5vne800O07C5M510014yDRAybvlcg6q5fgCMp5wIDAQABo4IB
ETCCAQ0wDgYDVR0PAQH/BAQDAgeAMAkGA1UdEwQCMAAwEwYDVR0lBAwwCgYIKwYB
BQUHAwEwHQYDVR0OBBYEFNknGHPGRsYkhWI4u+BfVSQRO/19MB8GA1UdIwQYMBaA
FLe6sAKh5740xsEFXGZ45btTXaFUMEQGCCsGAQUFBwEBBDgwNjA0BggrBgEFBQcw
AoYoaHR0cDovL3BraS5lc29kZW1vYXBwMi5jb20vY2EvdGxzLWNhLmNlcjA5BgNV
HR8EMjAwMC6gLKAqhihodHRwOi8vcGtpLmVzb2RlbW9hcHAyLmNvbS9jYS90bHMt
Y2EuY3JsMBoGA1UdEQQTMBGCD2dycGMuZG9tYWluLmNvbTANBgkqhkiG9w0BAQsF
AAOCAQEAXhoXQA14XtfFCV8lRK7vbDB0rmCc8z3BSrsrjkUBAFlbtZHaWpDfCUB7
2TTThiPro0EKUFf7MmagQPIPwhOCJA4qaQHAcfyQYX7+hhrZQuWl9u/Fen7ACEtK
ecDuH3SVAu9HHgSMFYvPbTs05XLQ/tX7nocY2In3kz8OrUauu8gqO4GiylQt4hHk
mX0pb9jzZiTFUIQjRf0kjVSXmxRbgnURwJYtwHwnR5tY1V1xP3cwJQoLzR0tNDmv
AK8va4dUdiI5Hid2lrhoooFg21nUfRBx6v69cNkszXxTJecU+ntuNT/oojWqzThd
fG/bGtL7NGkVqbSdAcB7672woDGm7Q==
-----END CERTIFICATE-----
