Certificate:
    Data:
        Version: 3 (0x2)
        Serial Number: 25 (0x19)
        Signature Algorithm: sha256WithRSAEncryption
        Issuer: C=US, O=Google, OU=Enterprise, CN=Single Root CA
        Validity
            Not Before: May 18 15:49:45 2024 GMT
            Not After : May 18 15:49:45 2034 GMT
        Subject: L=US, O=Google, OU=Enterprise, CN=envoy.domain.com
        Subject Public Key Info:
            Public Key Algorithm: rsaEncryption
                Public-Key: (2048 bit)
                Modulus:
                    00:94:81:d6:04:d2:d7:18:de:03:d6:d5:66:31:2a:
                    eb:80:ff:e4:07:79:50:c9:8f:f9:ea:57:e0:6a:53:
                    ba:0a:ef:46:db:13:7d:50:53:cd:40:d6:4a:09:89:
                    36:b5:6e:ef:5d:d5:3f:34:27:9f:14:fc:45:0e:96:
                    d2:a6:ba:c1:bf:5f:4f:bf:a8:b1:9c:28:a4:7f:be:
                    32:fa:b3:cf:36:16:26:b5:0d:3e:03:03:31:8b:76:
                    dd:8e:f3:48:5c:3b:01:20:1f:be:53:29:27:45:72:
                    d3:33:1b:a9:2c:9d:82:4b:d9:44:95:cc:a4:e4:07:
                    0d:79:50:2b:72:5f:24:e1:79:54:bd:f3:36:4b:24:
                    c3:d2:6d:90:c9:41:f7:fd:0e:7b:ab:78:94:f8:1f:
                    c5:bc:f3:ea:a9:9d:dd:8a:b1:6a:68:55:c3:f4:04:
                    fb:a1:ea:b0:7d:b2:01:be:c7:02:f9:76:1a:28:5d:
                    76:27:52:86:ab:1e:ef:a0:a8:b3:01:ec:a5:b6:a0:
                    e1:f8:c0:c7:14:a3:69:07:57:32:14:51:85:7f:00:
                    8f:cd:23:ce:0a:39:41:a3:79:de:d4:e5:23:94:8e:
                    53:37:3e:c7:1b:92:92:f6:d9:cb:79:d4:43:3e:61:
                    d4:e8:b0:c3:2c:31:04:a1:1b:e7:3b:95:fc:60:00:
                    e3:65
                Exponent: 65537 (0x10001)
        X509v3 extensions:
            X509v3 Key Usage: critical
                Digital Signature
            X509v3 Basic Constraints: 
                CA:FALSE
            X509v3 Extended Key Usage: 
                TLS Web Server Authentication
            X509v3 Subject Key Identifier: 
                F5:7E:5F:C6:1C:89:7B:5C:F3:BF:ED:D4:EC:74:0B:B4:9E:43:EC:6F
            X509v3 Authority Key Identifier: 
                EC:F0:EA:53:53:3F:9F:23:DC:C1:0E:31:10:37:07:DE:DE:E7:6E:F3
            Authority Information Access: 
                CA Issuers - URI:http://pki.esodemoapp2.com/ca/root-ca.cer
            X509v3 CRL Distribution Points: 
                Full Name:
                  URI:http://pki.esodemoapp2.com/ca/root-ca.crl
            X509v3 Subject Alternative Name: 
                DNS:envoy.domain.com
    Signature Algorithm: sha256WithRSAEncryption
    Signature Value:
        35:dc:1a:9d:44:e6:d5:d2:dd:a3:13:28:4b:3a:5e:43:f4:a0:
        ed:64:94:95:e8:ab:ef:2d:3b:05:79:4f:4c:3e:d8:c6:37:8d:
        08:59:33:bf:31:f3:72:3d:f3:f3:19:40:19:d6:11:6c:ee:24:
        bc:4c:d8:50:5d:5d:18:eb:82:f6:6b:d2:0c:35:b7:04:35:d9:
        ec:47:01:c5:07:55:22:0a:72:36:82:46:7a:b0:34:18:70:ac:
        1c:87:3e:24:d5:6f:b3:62:02:5f:c6:1e:89:a9:11:38:ad:07:
        89:fd:72:86:15:42:b7:d7:4a:1d:3f:29:62:e7:a8:57:03:7e:
        d3:16:8a:8d:fb:c6:c3:90:2a:bf:6f:28:2b:f5:53:7c:98:00:
        f7:2f:e2:07:62:3c:56:04:8a:c4:56:e2:cc:47:b4:07:d3:b0:
        e9:07:01:9d:29:d9:b0:cb:d9:22:12:5a:98:bb:18:f1:9f:13:
        36:6d:03:3e:44:ea:99:7c:c9:f4:ca:4a:c2:7e:54:8a:ac:38:
        cc:10:0f:c9:11:3f:ad:62:c9:85:54:90:d0:1a:aa:35:44:33:
        71:8b:bf:5f:8b:6f:0c:6c:c9:a7:69:11:31:b6:b4:e8:e7:e8:
        c8:06:ca:93:37:65:5c:74:63:52:b1:28:23:c3:03:c0:b6:08:
        ab:21:5f:b7
-----BEGIN CERTIFICATE-----
MIIEKzCCAxOgAwIBAgIBGTANBgkqhkiG9w0BAQsFADBMMQswCQYDVQQGEwJVUzEP
MA0GA1UECgwGR29vZ2xlMRMwEQYDVQQLDApFbnRlcnByaXNlMRcwFQYDVQQDDA5T
aW5nbGUgUm9vdCBDQTAeFw0yNDA1MTgxNTQ5NDVaFw0zNDA1MTgxNTQ5NDVaME4x
CzAJBgNVBAcMAlVTMQ8wDQYDVQQKDAZHb29nbGUxEzARBgNVBAsMCkVudGVycHJp
c2UxGTAXBgNVBAMMEGVudm95LmRvbWFpbi5jb20wggEiMA0GCSqGSIb3DQEBAQUA
A4IBDwAwggEKAoIBAQCUgdYE0tcY3gPW1WYxKuuA/+QHeVDJj/nqV+BqU7oK70bb
E31QU81A1koJiTa1bu9d1T80J58U/EUOltKmusG/X0+/qLGcKKR/vjL6s882Fia1
DT4DAzGLdt2O80hcOwEgH75TKSdFctMzG6ksnYJL2USVzKTkBw15UCtyXyTheVS9
8zZLJMPSbZDJQff9DnureJT4H8W88+qpnd2KsWpoVcP0BPuh6rB9sgG+xwL5dhoo
XXYnUoarHu+gqLMB7KW2oOH4wMcUo2kHVzIUUYV/AI/NI84KOUGjed7U5SOUjlM3
PscbkpL22ct51EM+YdTosMMsMQShG+c7lfxgAONlAgMBAAGjggEUMIIBEDAOBgNV
HQ8BAf8EBAMCB4AwCQYDVR0TBAIwADATBgNVHSUEDDAKBggrBgEFBQcDATAdBgNV
HQ4EFgQU9X5fxhyJe1zzv+3U7HQLtJ5D7G8wHwYDVR0jBBgwFoAU7PDqU1M/nyPc
wQ4xEDcH3t7nbvMwRQYIKwYBBQUHAQEEOTA3MDUGCCsGAQUFBzAChilodHRwOi8v
cGtpLmVzb2RlbW9hcHAyLmNvbS9jYS9yb290LWNhLmNlcjA6BgNVHR8EMzAxMC+g
LaArhilodHRwOi8vcGtpLmVzb2RlbW9hcHAyLmNvbS9jYS9yb290LWNhLmNybDAb
BgNVHREEFDASghBlbnZveS5kb21haW4uY29tMA0GCSqGSIb3DQEBCwUAA4IBAQA1
3BqdRObV0t2jEyhLOl5D9KDtZJSV6KvvLTsFeU9MPtjGN40IWTO/MfNyPfPzGUAZ
1hFs7iS8TNhQXV0Y64L2a9IMNbcENdnsRwHFB1UiCnI2gkZ6sDQYcKwchz4k1W+z
YgJfxh6JqRE4rQeJ/XKGFUK310odPyli56hXA37TFoqN+8bDkCq/bygr9VN8mAD3
L+IHYjxWBIrEVuLMR7QH07DpBwGdKdmwy9kiElqYuxjxnxM2bQM+ROqZfMn0ykrC
flSKrDjMEA/JET+tYsmFVJDQGqo1RDNxi79fi28MbMmnaRExtrTo5+jIBsqTN2Vc
dGNSsSgjwwPAtgirIV+3
-----END CERTIFICATE-----
